	.arch armv7-a
	.fpu softvfp
	.eabi_attribute 20, 1
	.eabi_attribute 21, 1
	.eabi_attribute 23, 3
	.eabi_attribute 24, 1
	.eabi_attribute 25, 1
	.eabi_attribute 26, 2
	.eabi_attribute 30, 2
	.eabi_attribute 34, 1
	.eabi_attribute 18, 4
	.file	"huawei_simlock.c"
	.text
.Ltext0:
		.macro	it, cond
	.endm
	.macro	itt, cond
	.endm
	.macro	ite, cond
	.endm
	.macro	ittt, cond
	.endm
	.macro	itte, cond
	.endm
	.macro	itet, cond
	.endm
	.macro	itee, cond
	.endm
	.macro	itttt, cond
	.endm
	.macro	ittte, cond
	.endm
	.macro	ittet, cond
	.endm
	.macro	ittee, cond
	.endm
	.macro	itett, cond
	.endm
	.macro	itete, cond
	.endm
	.macro	iteet, cond
	.endm
	.macro	iteee, cond
	.endm

	.section	.init.text,"ax",%progbits
	.align	2
	.type	drv_verify_simlock_acore_init, %function
drv_verify_simlock_acore_init:
	.fnstart
.LFB1992:
	.file 1 "/usr1/ywx374880/B618_Master/vendor/hisi/build/release_kernel/kernel/drivers/simlock/huawei_lock/huawei_simlock.c"
	.loc 1 715 0
	@ args = 0, pretend = 0, frame = 0
	@ frame_needed = 0, uses_anonymous_args = 0
	stmfd	sp!, {r4, lr}
	.save {r4, lr}
.LCFI0:
	.pad #8
	sub	sp, sp, #8
.LCFI1:
	.loc 1 719 0
	mov	r3, #0
	mov	r0, #24
	mov	r2, r3
	str	r3, [sp, #0]
	ldr	r1, .L4
	bl	bsp_icc_event_register
.LVL0:
	.loc 1 722 0
	subs	r4, r0, #0
.LVL1:
	beq	.L2
	.loc 1 724 0
	ldr	r0, .L4+4
	mov	r1, r4
	bl	printk
.LVL2:
	.loc 1 725 0
	mvn	r0, #0
	b	.L3
.L2:
	.loc 1 728 0
	ldr	r0, .L4+8
	bl	printk
.LVL3:
	.loc 1 729 0
	mov	r0, r4
.L3:
	.loc 1 730 0
	add	sp, sp, #8
	ldmfd	sp!, {r4, pc}
.L5:
	.align	2
.L4:
	.word	drv_icc_hwlock_verify
	.word	.LC2
	.word	.LC3
.LFE1992:
	.fnend
	.size	drv_verify_simlock_acore_init, .-drv_verify_simlock_acore_init
	.text
	.align	2
	.type	hmac_sha256, %function
hmac_sha256:
	.fnstart
.LFB1979:
	.loc 1 57 0
	@ args = 4, pretend = 0, frame = 0
	@ frame_needed = 1, uses_anonymous_args = 0
.LVL4:
	stmfd	sp!, {r4, r5, r6, r7, r8, sl, fp, lr}
	.save {r4, r5, r6, r7, r8, sl, fp, lr}
.LCFI2:
	.loc 1 60 0
	cmp	r0, #0
	cmpne	r2, #0
	.loc 1 57 0
	.setfp fp, sp, #28
	add	fp, sp, #28
.LCFI3:
	.loc 1 60 0
	mov	r6, r2
	mov	r5, r0
	movne	r2, #0
	moveq	r2, #1
.LVL5:
	.loc 1 57 0
	mov	r7, r1
	mov	sl, r3
	ldr	r8, [fp, #4]
	.loc 1 60 0
	beq	.L7
	.loc 1 60 0 is_stmt 0 discriminator 1
	cmp	r8, #0
	beq	.L7
	.loc 1 66 0 is_stmt 1
	cmp	r1, #0
	beq	.L13
	.loc 1 73 0
	mov	r1, r2
	ldr	r0, .L17
	bl	crypto_alloc_shash
.LVL6:
	.loc 1 74 0
	cmn	r0, #4096
.LVL7:
	.loc 1 73 0
	mov	r4, r0
.LVL8:
	.loc 1 74 0
	bhi	.L15
	.loc 1 80 0
	mov	r1, r5
	mov	r2, r7
	bl	crypto_shash_setkey
.LVL9:
	.loc 1 81 0
	subs	r5, r0, #0
.LVL10:
	bne	.L16
.LBB22:
	.loc 1 91 0
	ldr	r0, [r4, #0]
	mov	r7, sp
.LVL11:
	.loc 1 94 0
	mov	lr, #512
	.loc 1 95 0
	mov	r1, r6
	.loc 1 91 0
	add	r0, r0, #127
	.loc 1 95 0
	mov	r2, sl
	.loc 1 91 0
	bic	r0, r0, #63
	.loc 1 95 0
	mov	r3, r8
	.loc 1 91 0
	add	r0, r0, #64
	sub	sp, sp, r0
	add	ip, sp, #63
	bic	ip, ip, #63
	.loc 1 93 0
	str	r4, [ip, #0]
	.loc 1 95 0
	mov	r0, ip
	.loc 1 94 0
	str	lr, [ip, #4]
	.loc 1 95 0
	bl	crypto_shash_digest
.LVL12:
	mov	sp, r7
	mov	r5, r0
.LVL13:
.L12:
.LBE22:
.LBB23:
.LBB24:
	.file 2 "/usr1/ywx374880/B618_Master/vendor/hisi/build/release_kernel/kernel/include/crypto/hash.h"
	.loc 2 268 0
	mov	r0, r4
	add	r1, r4, #64
.LVL14:
	bl	crypto_destroy_tfm
.LVL15:
.L9:
.LBE24:
.LBE23:
	.loc 1 100 0
	mov	r0, r5
.LVL16:
	sub	sp, fp, #28
	ldmfd	sp!, {r4, r5, r6, r7, r8, sl, fp, pc}
.LVL17:
.L13:
	.loc 1 68 0
	mvn	r5, #21
.LVL18:
	b	.L9
.LVL19:
.L7:
	.loc 1 62 0
	ldr	r0, .L17+4
	.loc 1 63 0
	mvn	r5, #0
.LVL20:
	.loc 1 62 0
	bl	printk
.LVL21:
	.loc 1 63 0
	b	.L9
.LVL22:
.L16:
	.loc 1 83 0
	mov	r1, r5
	ldr	r0, .L17+8
	bl	printk
.LVL23:
	b	.L12
.LVL24:
.L15:
.LBB25:
.LBB26:
	.file 3 "/usr1/ywx374880/B618_Master/vendor/hisi/build/release_kernel/kernel/include/linux/err.h"
	.loc 3 29 0
	mov	r5, r0
.LVL25:
.LBE26:
.LBE25:
	.loc 1 76 0
	mov	r1, r4
	ldr	r0, .L17+12
	bl	printk
.LVL26:
	.loc 1 77 0
	b	.L9
.L18:
	.align	2
.L17:
	.word	.LC5
	.word	.LC4
	.word	.LC7
	.word	.LC6
.LFE1979:
	.fnend
	.size	hmac_sha256, .-hmac_sha256
	.align	2
	.type	PBKDF2.constprop.0, %function
PBKDF2.constprop.0:
	.fnstart
.LFB1993:
	.loc 1 103 0
	@ args = 4, pretend = 0, frame = 104
	@ frame_needed = 0, uses_anonymous_args = 0
.LVL27:
	stmfd	sp!, {r4, r5, r6, r7, r8, r9, sl, lr}
	.save {r4, r5, r6, r7, r8, r9, sl, lr}
.LCFI4:
	.loc 1 114 0
	cmp	r0, #0
	cmpne	r2, #0
	.loc 1 103 0
	.pad #112
	sub	sp, sp, #112
.LCFI5:
	.loc 1 108 0
	mov	ip, #0
	.loc 1 114 0
	mov	r4, r2
	movne	r9, #0
	moveq	r9, #1
	.loc 1 103 0
	mov	r5, r1
	mov	sl, r3
	ldr	r8, [sp, #144]
	.loc 1 114 0
	mov	r7, r0
	.loc 1 108 0
	str	ip, [sp, #8]
	str	ip, [sp, #12]
	str	ip, [sp, #16]
	str	ip, [sp, #20]
	str	ip, [sp, #24]
	str	ip, [sp, #28]
	str	ip, [sp, #32]
	str	ip, [sp, #36]
	.loc 1 109 0
	str	ip, [sp, #40]
	str	ip, [sp, #44]
	str	ip, [sp, #48]
	str	ip, [sp, #52]
	str	ip, [sp, #56]
	str	ip, [sp, #60]
	str	ip, [sp, #64]
	str	ip, [sp, #68]
	.loc 1 110 0
	str	ip, [sp, #72]
	str	ip, [sp, #76]
	str	ip, [sp, #80]
	str	ip, [sp, #84]
	str	ip, [sp, #88]
	str	ip, [sp, #92]
	str	ip, [sp, #96]
	str	ip, [sp, #100]
	str	ip, [sp, #104]
	str	ip, [sp, #108]
	.loc 1 114 0
	beq	.L20
	cmp	r3, ip
	beq	.L20
	.loc 1 132 0
	bl	strlen
.LVL28:
	cmp	r0, r5
	mov	r6, r0
	bne	.L34
	.loc 1 138 0
	movw	r3, #9999
	cmp	r8, r3
	bls	.L35
	.loc 1 145 0
	ldr	r3, .L39
	.loc 1 152 0
	add	r5, sp, #8
.LVL29:
	.loc 1 145 0
	ldr	r0, [r3, #0]
	sub	r0, r0, #1
	bl	cpufreq_dfs_set_profile
.LVL30:
	.loc 1 148 0
	ldr	r0, [r4, #0]	@ unaligned
	ldr	r1, [r4, #4]	@ unaligned
	add	ip, sp, #72
	ldr	r2, [r4, #8]	@ unaligned
	ldr	r3, [r4, #12]	@ unaligned
	stmia	ip!, {r0, r1, r2, r3}
	ldr	r0, [r4, #16]	@ unaligned
	ldr	r1, [r4, #20]	@ unaligned
	ldr	r2, [r4, #24]	@ unaligned
	ldr	r3, [r4, #28]	@ unaligned
	.loc 1 152 0
	str	r5, [sp, #0]
	.loc 1 148 0
	stmia	ip!, {r0, r1, r2, r3}
	.loc 1 152 0
	mov	r0, r7
	mov	r1, r6
	add	r2, sp, #72
	mov	r3, #36
	.loc 1 151 0
	strb	r9, [sp, #104]
	strb	r9, [sp, #105]
	mov	ip, #1
	strb	r9, [sp, #106]
	strb	ip, [sp, #107]
	.loc 1 152 0
	bl	hmac_sha256
.LVL31:
	.loc 1 153 0
	subs	r9, r0, #0
	bne	.L36
.LBB27:
	.loc 1 158 0
	add	r0, sp, #72
	mov	r1, #40
	bl	__memzero
.LVL32:
	add	r4, sp, #40
.LVL33:
	mov	r2, r9
	.loc 1 159 0
	mov	r3, r9
	b	.L27
.L37:
	ldrb	r2, [r4, r3]	@ zero_extendqisi2
.L27:
.LBE27:
	.loc 1 161 0
	ldrb	r1, [r5, r3]	@ zero_extendqisi2
	eor	r2, r2, r1
	strb	r2, [r4, r3]
	.loc 1 159 0
	add	r3, r3, #1
	cmp	r3, #32
	bne	.L37
	mov	r9, #1
.LVL34:
.L26:
	.loc 1 166 0
	mov	lr, r5
	add	ip, sp, #72
	ldmia	lr!, {r0, r1, r2, r3}
	.loc 1 167 0
	str	r5, [sp, #0]
	.loc 1 166 0
	stmia	ip!, {r0, r1, r2, r3}
	ldmia	lr, {r0, r1, r2, r3}
	stmia	ip, {r0, r1, r2, r3}
	.loc 1 167 0
	mov	r1, r6
	mov	r0, r7
	add	r2, sp, #72
	mov	r3, #32
	bl	hmac_sha256
.LVL35:
	.loc 1 168 0
	subs	r1, r0, #0
	bne	.L38
	mov	r2, r1
.L28:
	.loc 1 176 0
	ldrb	r3, [r4, r2]	@ zero_extendqisi2
	ldrb	ip, [r5, r2]	@ zero_extendqisi2
	eor	ip, ip, r3
	strb	ip, [r4, r2]
	.loc 1 174 0
	add	r2, r2, #1
	cmp	r2, #32
	bne	.L28
	.loc 1 164 0
	add	r9, r9, #1
	cmp	r8, r9
	bcs	.L26
	.loc 1 181 0
	ldmia	r4!, {r0, r1, r2, r3}
	.loc 1 183 0
	mov	ip, #0
	.loc 1 181 0
	str	r0, [sl, #0]	@ unaligned
	str	r1, [sl, #4]	@ unaligned
	str	r2, [sl, #8]	@ unaligned
	str	r3, [sl, #12]	@ unaligned
	ldmia	r4!, {r0, r1, r2, r3}
	str	r0, [sl, #16]	@ unaligned
	str	r1, [sl, #20]	@ unaligned
	str	r2, [sl, #24]	@ unaligned
	str	r3, [sl, #28]	@ unaligned
.LVL36:
.L22:
	.loc 1 184 0
	mov	r0, ip
	add	sp, sp, #112
	ldmfd	sp!, {r4, r5, r6, r7, r8, r9, sl, pc}
.LVL37:
.L20:
	.loc 1 116 0
	ldr	r0, .L39+4
	bl	printk
.LVL38:
	.loc 1 117 0
	mvn	ip, #0
	b	.L22
.L34:
	.loc 1 134 0
	ldr	r0, .L39+8
	bl	printk
.LVL39:
	.loc 1 135 0
	mvn	ip, #0
	b	.L22
.L35:
	.loc 1 140 0
	ldr	r0, .L39+12
	bl	printk
.LVL40:
	.loc 1 141 0
	mvn	ip, #0
	b	.L22
.LVL41:
.L36:
	.loc 1 155 0
	ldr	r0, .L39+16
	mov	r1, r9
	bl	printk
.LVL42:
	.loc 1 156 0
	mvn	ip, #0
	b	.L22
.LVL43:
.L38:
	.loc 1 170 0
	ldr	r0, .L39+16
	bl	printk
.LVL44:
	.loc 1 171 0
	mvn	ip, #0
	b	.L22
.L40:
	.align	2
.L39:
	.word	g_cpufreq_max_profile
	.word	.LC8
	.word	.LC9
	.word	.LC10
	.word	.LC11
.LFE1993:
	.fnend
	.size	PBKDF2.constprop.0, .-PBKDF2.constprop.0
	.align	2
	.global	hwlock_get_rtc_time
	.type	hwlock_get_rtc_time, %function
hwlock_get_rtc_time:
	.fnstart
.LFB1978:
	.loc 1 49 0
	@ args = 0, pretend = 0, frame = 128
	@ frame_needed = 0, uses_anonymous_args = 0
.LVL45:
	stmfd	sp!, {r4, lr}
	.save {r4, lr}
.LCFI6:
	.pad #128
	sub	sp, sp, #128
.LCFI7:
	.loc 1 49 0
	mov	r4, r0
	.loc 1 51 0
	add	r0, sp, #36
.LVL46:
	bl	do_gettimeofday
.LVL47:
	.loc 1 52 0
	ldr	r0, [sp, #36]
	mov	r1, r4
	bl	rtc_time_to_tm
.LVL48:
	.loc 1 53 0
	add	sp, sp, #128
	ldmfd	sp!, {r4, pc}
.LFE1978:
	.fnend
	.size	hwlock_get_rtc_time, .-hwlock_get_rtc_time
	.align	2
	.global	get_pbkdf2_times_random
	.type	get_pbkdf2_times_random, %function
get_pbkdf2_times_random:
	.fnstart
.LFB1983:
	.loc 1 229 0
	@ args = 0, pretend = 0, frame = 8
	@ frame_needed = 0, uses_anonymous_args = 0
	str	lr, [sp, #-4]!
	.save {lr}
.LCFI8:
	.pad #12
	sub	sp, sp, #12
.LCFI9:
	.loc 1 230 0
	add	r0, sp, #8
	.loc 1 232 0
	mov	r1, #4
	.loc 1 230 0
	mov	r3, #0
	str	r3, [r0, #-4]!
.LVL49:
	.loc 1 232 0
	bl	get_random_bytes
.LVL50:
	.loc 1 233 0
	ldr	r3, [sp, #4]
	movw	r2, #5977
	movt	r2, 53687
	umull	r1, r2, r2, r3
	movw	r1, #10000
	mov	r2, r2, lsr #13
	mls	r0, r1, r2, r3
	.loc 1 235 0
	add	r0, r0, #9984
	add	r0, r0, #16
	add	sp, sp, #12
	ldmfd	sp!, {pc}
.LFE1983:
	.fnend
	.size	get_pbkdf2_times_random, .-get_pbkdf2_times_random
	.align	2
	.global	hw_lock_set_proc
	.type	hw_lock_set_proc, %function
hw_lock_set_proc:
	.fnstart
.LFB1988:
	.loc 1 375 0
	@ args = 0, pretend = 0, frame = 264
	@ frame_needed = 0, uses_anonymous_args = 0
.LVL51:
	.loc 1 387 0
	ldr	r3, .L97
	.loc 1 375 0
	stmfd	sp!, {r4, r5, r6, r7, r8, r9, sl, fp, lr}
	.save {r4, r5, r6, r7, r8, r9, sl, fp, lr}
.LCFI10:
	.pad #292
	sub	sp, sp, #292
.LCFI11:
	.loc 1 387 0
	ldr	r3, [r3, #0]
	.loc 1 375 0
	mov	r5, r1
	str	r0, [sp, #40]
.LBB44:
	.loc 1 388 0
	mov	r1, #128
.LVL52:
	add	r0, sp, #160
.LVL53:
.LBE44:
	.loc 1 382 0
	mov	r4, #0
	.loc 1 387 0
	add	r8, r3, #1488
	str	r3, [sp, #44]
	str	r8, [sp, #52]
	.loc 1 375 0
	str	r2, [sp, #48]
	.loc 1 382 0
	str	r4, [sp, #60]
	str	r4, [sp, #64]
	str	r4, [sp, #68]
	str	r4, [sp, #72]
	str	r4, [sp, #76]
	str	r4, [sp, #80]
	str	r4, [sp, #84]
	str	r4, [sp, #88]
	.loc 1 383 0
	str	r4, [sp, #92]
	str	r4, [sp, #96]
	str	r4, [sp, #100]
	str	r4, [sp, #104]
	str	r4, [sp, #108]
	str	r4, [sp, #112]
	str	r4, [sp, #116]
	str	r4, [sp, #120]
	.loc 1 384 0
	str	r4, [sp, #56]
.LVL54:
.LBB45:
	.loc 1 388 0
	bl	__memzero
.LVL55:
.LBE45:
	.loc 1 390 0
	ldr	r8, [sp, #40]
	cmp	r8, r4
	.loc 1 392 0
	ldreq	r0, .L97+4
	.loc 1 390 0
	beq	.L85
	.loc 1 397 0
	ldr	r0, [sp, #40]
	bl	strlen
.LVL56:
	cmp	r0, r5
	str	r0, [sp, #36]
	bne	.L46
	.loc 1 397 0 is_stmt 0 discriminator 1
	cmp	r0, #32
	bhi	.L46
.LBB46:
.LBB47:
	.loc 1 327 0 is_stmt 1
	ldr	r8, [sp, #36]
	cmp	r8, #0
	beq	.L86
	.loc 1 374 0
	ldr	r1, [sp, #40]
	add	r7, sp, #124
	ldr	r8, [sp, #36]
.LBB48:
.LBB49:
	add	lr, sp, #138
	.loc 1 253 0
	ldr	r6, .L97+8
.LBE49:
.LBE48:
	.loc 1 374 0
	add	sl, r8, r1
.LBE47:
.LBE46:
	str	r4, [sp, #32]
.LBB69:
.LBB64:
.LBB52:
.LBB53:
	.loc 1 270 0
	add	r8, r6, #16
	mov	r5, r1
.LVL57:
.LBE53:
.LBE52:
.LBE64:
.LBE69:
	.loc 1 374 0
	str	r4, [sp, #28]
	str	r4, [sp, #24]
	b	.L58
.L69:
.LBB70:
.LBB65:
.LBB56:
.LBB57:
	.loc 1 342 0
	mov	r3, #1
	str	r3, [sp, #24]
.L50:
.LBE57:
.LBE56:
	.loc 1 338 0
	cmp	r5, sl
	beq	.L87
.L58:
	.loc 1 340 0
	ldrb	ip, [r5], #1	@ zero_extendqisi2
.LBB59:
.LBB58:
	.loc 1 240 0
	sub	r3, ip, #48
	cmp	r3, #9
	bls	.L69
.LBE58:
.LBE59:
.LBB60:
.LBB50:
	.loc 1 253 0
	ldr	r0, [r6, #0]	@ unaligned
	add	r3, sp, #123
	ldr	r1, [r6, #4]	@ unaligned
	mov	r4, r7
	ldr	r2, [r6, #8]	@ unaligned
	ldrh	fp, [r6, #12]	@ unaligned
	ldrb	r9, [r6, #14]	@ zero_extendqisi2
	stmia	r4!, {r0, r1, r2}
	strh	fp, [r4, #0]	@ unaligned
	strb	r9, [r4, #2]
.L53:
	.loc 1 258 0
	ldrb	r2, [r3, #1]!	@ zero_extendqisi2
	cmp	r2, ip
	beq	.L52
	.loc 1 256 0
	cmp	r3, lr
	bne	.L53
.LBE50:
.LBE60:
.LBB61:
.LBB54:
	.loc 1 270 0
	ldr	r0, [r8, #0]	@ unaligned
	add	r3, sp, #123
	ldr	r1, [r8, #4]	@ unaligned
	mov	r4, r7
	ldr	r2, [r8, #8]	@ unaligned
	ldrh	fp, [r8, #12]	@ unaligned
	ldrb	r9, [r8, #14]	@ zero_extendqisi2
	stmia	r4!, {r0, r1, r2}
	strh	fp, [r4, #0]	@ unaligned
	strb	r9, [r4, #2]
.L56:
	.loc 1 276 0
	ldrb	r2, [r3, #1]!	@ zero_extendqisi2
	cmp	r2, ip
	beq	.L55
	.loc 1 274 0
	cmp	r3, lr
	bne	.L56
.LBE54:
.LBE61:
	.loc 1 358 0
	ldr	r0, .L97+12
	bl	printk
.LVL58:
.L49:
.LBE65:
.LBE70:
	.loc 1 418 0
	ldr	r0, .L97+16
	add	r4, sp, #92
	bl	printk
.LVL59:
	add	r6, sp, #60
	.loc 1 419 0
	mvn	r5, #0
.LVL60:
.L45:
.LBB71:
	.loc 1 506 0
	add	r0, sp, #160
	mov	r1, #128
	bl	__memzero
.LVL61:
.LBE71:
.LBB72:
	.loc 1 507 0
	mov	r0, r6
	mov	r1, #32
	bl	__memzero
.LVL62:
.LBE72:
.LBB73:
	.loc 1 508 0
	mov	r0, r4
	mov	r1, #32
	bl	__memzero
.LVL63:
.LBE73:
	.loc 1 511 0
	mov	r0, r7
	bl	hwlock_get_rtc_time
.LVL64:
	.loc 1 517 0
	ldr	r2, [sp, #136]
	mov	r1, #1
	ldr	r0, [sp, #132]
	ldr	r3, [sp, #144]
	str	r2, [sp, #4]
	ldr	r2, [sp, #140]
	add	r3, r3, #1888
	str	r0, [sp, #8]
	add	r3, r3, #12
	add	r2, r2, r1
	str	r2, [sp, #0]
	ldr	r2, [sp, #128]
	ldr	r0, .L97+20
	str	r2, [sp, #12]
	ldr	r2, [sp, #124]
	str	r2, [sp, #16]
	ldr	r2, .L97+24
	bl	mlog_print
.LVL65:
	.loc 1 519 0
	ldr	r0, .L97+20
	mov	r1, #1
	ldr	r2, .L97+28
	mov	r3, r5
	bl	mlog_print
.LVL66:
	.loc 1 524 0
	mov	r0, r5
	add	sp, sp, #292
	ldmfd	sp!, {r4, r5, r6, r7, r8, r9, sl, fp, pc}
.LVL67:
.L52:
.LBB74:
.LBB66:
	.loc 1 338 0
	cmp	r5, sl
.LBB62:
.LBB51:
	.loc 1 347 0
	mov	r3, #1
	str	r3, [sp, #28]
.LBE51:
.LBE62:
	.loc 1 338 0
	bne	.L58
.L87:
	.loc 1 363 0
	ldr	r8, [sp, #32]
	ldr	r1, [sp, #24]
	add	r3, r8, r1
	ldr	r8, [sp, #28]
	add	r3, r3, r8
	.loc 1 365 0
	cmp	r3, #1
	ble	.L49
.LBE66:
.LBE74:
	.loc 1 423 0
	ldr	r8, [sp, #48]
	cmp	r8, #1
	beq	.L88
	.loc 1 427 0
	ldr	r3, [sp, #48]
	cmp	r3, #2
	.loc 1 429 0
	movweq	r5, #50503
.LVL68:
	.loc 1 427 0
	bne	.L89
.L60:
.LBB75:
.LBB76:
	.loc 1 439 0
	add	r4, sp, #92
	.loc 1 217 0
	mov	r1, #32
	mov	r0, r4
	bl	get_random_bytes
.LVL69:
	.loc 1 374 0
	add	r3, sp, #91
	add	r1, sp, #123
	b	.L62
.L91:
.LBB77:
.LBB78:
	.loc 1 196 0
	cmp	r3, r1
	beq	.L90
.L62:
	.loc 1 198 0
	ldrb	r2, [r3, #1]!	@ zero_extendqisi2
	cmp	r2, #0
	beq	.L91
.L61:
.LBE78:
.LBE77:
.LBE76:
.LBE75:
	.loc 1 447 0
	bl	get_pbkdf2_times_random
.LVL70:
	.loc 1 448 0
	movw	r3, #9999
	cmp	r0, r3
.LVL71:
	.loc 1 447 0
	mov	r8, r0
.LVL72:
	.loc 1 448 0
	bls	.L92
.L63:
	.loc 1 456 0
	add	r3, sp, #56
	mov	r1, r4
	str	r3, [sp, #0]
	mov	r2, #32
	ldr	r0, .L97+32
	add	r3, sp, #192
	.loc 1 454 0
	str	r8, [sp, #260]
	.loc 1 456 0
	bl	wb_aes_encrypt_cbc
.LVL73:
	.loc 1 457 0
	subs	r1, r0, #0
	bne	.L93
	.loc 1 464 0
	ldr	r1, [sp, #56]
	cmp	r1, #48
	bne	.L94
	.loc 1 471 0
	add	r6, sp, #60
	ldr	r1, [sp, #36]
	str	r8, [sp, #0]
	mov	r2, r4
	ldr	r0, [sp, #40]
	mov	r3, r6
	bl	PBKDF2.constprop.0
.LVL74:
	.loc 1 472 0
	subs	r1, r0, #0
	bne	.L95
	.loc 1 480 0
	mov	lr, r6
	add	ip, sp, #160
	ldmia	lr!, {r0, r1, r2, r3}
	.loc 1 482 0
	ldr	r8, [sp, #52]
.LVL75:
	cmp	r8, #0
	.loc 1 479 0
	mov	r8, #101
	.loc 1 480 0
	stmia	ip!, {r0, r1, r2, r3}
	ldmia	lr, {r0, r1, r2, r3}
	.loc 1 479 0
	strb	r8, [sp, #256]
	.loc 1 480 0
	stmia	ip, {r0, r1, r2, r3}
	.loc 1 482 0
	beq	.L96
	.loc 1 490 0
	ldr	r8, [sp, #44]
	.loc 1 492 0
	mov	r1, r5
	.loc 1 490 0
	movw	r3, #541
	.loc 1 492 0
	mov	r0, #1
	.loc 1 490 0
	movt	r3, 40060
	.loc 1 492 0
	add	r2, sp, #160
	.loc 1 490 0
	str	r3, [r8, #1488]
	.loc 1 492 0
	mov	r3, #128
	bl	bsp_nvm_dcwrite
.LVL76:
	.loc 1 494 0
	subs	r5, r0, #0
.LVL77:
	beq	.L45
	.loc 1 496 0
	mov	r1, r5
	ldr	r0, .L97+36
	bl	printk
.LVL78:
	.loc 1 497 0
	mvn	r5, #0
	.loc 1 498 0
	b	.L45
.L55:
.LBB82:
.LBB67:
.LBB63:
.LBB55:
	.loc 1 352 0
	mov	r3, #1
	str	r3, [sp, #32]
	b	.L50
.LVL79:
.L90:
.LBE55:
.LBE63:
.LBE67:
.LBE82:
.LBB83:
.LBB81:
.LBB80:
.LBB79:
	.loc 1 203 0
	ldr	r0, .L97+40
	bl	printk
.LVL80:
.LBE79:
.LBE80:
	.loc 1 221 0
	mov	r0, r4
	mov	r1, #32
	bl	get_random_bytes
.LVL81:
	b	.L61
.LVL82:
.L88:
.LBE81:
.LBE83:
	.loc 1 425 0
	movw	r5, #50502
.LVL83:
	b	.L60
.LVL84:
.L92:
	.loc 1 450 0
	ldr	r0, .L97+44
	.loc 1 451 0
	movw	r8, #10000
	.loc 1 450 0
	bl	printk
.LVL85:
	b	.L63
.LVL86:
.L89:
	.loc 1 433 0
	ldr	r0, .L97+48
	.loc 1 434 0
	mvn	r5, #0
.LVL87:
	.loc 1 433 0
	bl	printk
.LVL88:
	add	r4, sp, #92
	add	r6, sp, #60
	.loc 1 435 0
	b	.L45
.LVL89:
.L86:
.LBB84:
.LBB68:
	.loc 1 329 0
	ldr	r0, .L97+52
	add	r7, sp, #124
	bl	printk
.LVL90:
	b	.L49
.L46:
.LBE68:
.LBE84:
	.loc 1 399 0
	ldr	r0, .L97+56
.L85:
	.loc 1 400 0
	mvn	r5, #0
.LVL91:
	.loc 1 399 0
	bl	printk
.LVL92:
	add	r4, sp, #92
	add	r6, sp, #60
	add	r7, sp, #124
	.loc 1 401 0
	b	.L45
.LVL93:
.L96:
	.loc 1 484 0
	ldr	r0, .L97+60
	.loc 1 485 0
	mvn	r5, #0
.LVL94:
	.loc 1 484 0
	bl	printk
.LVL95:
	.loc 1 486 0
	b	.L45
.LVL96:
.L95:
	.loc 1 474 0
	ldr	r0, .L97+64
	.loc 1 475 0
	mvn	r5, #0
.LVL97:
	.loc 1 474 0
	bl	printk
.LVL98:
	.loc 1 476 0
	b	.L45
.LVL99:
.L94:
	.loc 1 466 0
	ldr	r0, .L97+68
	.loc 1 467 0
	mvn	r5, #0
.LVL100:
	.loc 1 466 0
	bl	printk
.LVL101:
	add	r6, sp, #60
	.loc 1 468 0
	b	.L45
.LVL102:
.L93:
	.loc 1 459 0
	ldr	r0, .L97+72
	.loc 1 460 0
	mvn	r5, #0
.LVL103:
	.loc 1 459 0
	bl	printk
.LVL104:
	add	r6, sp, #60
	.loc 1 461 0
	b	.L45
.L98:
	.align	2
.L97:
	.word	g_mem_ctrl
	.word	.LC12
	.word	.LANCHOR0
	.word	.LC27
	.word	.LC28
	.word	.LC24
	.word	.LC25
	.word	.LC26
	.word	.LC18
	.word	.LC23
	.word	.LC16
	.word	.LC17
	.word	.LC15
	.word	.LC14
	.word	.LC13
	.word	.LC22
	.word	.LC21
	.word	.LC20
	.word	.LC19
.LFE1988:
	.fnend
	.size	hw_lock_set_proc, .-hw_lock_set_proc
	.align	2
	.global	hw_lock_verify_proc
	.type	hw_lock_verify_proc, %function
hw_lock_verify_proc:
	.fnstart
.LFB1989:
	.loc 1 528 0
	@ args = 0, pretend = 0, frame = 232
	@ frame_needed = 0, uses_anonymous_args = 0
.LVL105:
	.loc 1 541 0
	ldr	ip, .L121
	.loc 1 535 0
	mov	r3, #0
	.loc 1 528 0
	stmfd	sp!, {r4, r5, r6, r7, r8, sl, lr}
	.save {r4, r5, r6, r7, r8, sl, lr}
.LCFI12:
	.pad #260
	sub	sp, sp, #260
.LCFI13:
	.loc 1 528 0
	mov	r6, r0
	mov	r8, r1
.LBB85:
	.loc 1 543 0
	add	r0, sp, #128
.LVL106:
	mov	r1, #128
.LVL107:
.LBE85:
	.loc 1 541 0
	ldr	r4, [ip, #0]
	.loc 1 528 0
	mov	r5, r2
	.loc 1 535 0
	str	r3, [sp, #28]
	str	r3, [sp, #32]
	.loc 1 541 0
	add	sl, r4, #1488
.LVL108:
	.loc 1 535 0
	str	r3, [sp, #36]
	str	r3, [sp, #40]
	str	r3, [sp, #44]
	str	r3, [sp, #48]
	str	r3, [sp, #52]
	str	r3, [sp, #56]
	.loc 1 537 0
	str	r3, [sp, #60]
	str	r3, [sp, #64]
	str	r3, [sp, #68]
	str	r3, [sp, #72]
	str	r3, [sp, #76]
	str	r3, [sp, #80]
	str	r3, [sp, #84]
	str	r3, [sp, #88]
	.loc 1 538 0
	str	r3, [sp, #24]
.LVL109:
.LBB86:
	.loc 1 543 0
	bl	__memzero
.LVL110:
.LBE86:
	.loc 1 545 0
	cmp	r6, #0
	beq	.L113
	.loc 1 552 0
	mov	r0, r6
	bl	strlen
.LVL111:
	cmp	r0, r8
	mov	r7, r0
	bne	.L102
	.loc 1 552 0 is_stmt 0 discriminator 1
	cmp	r0, #32
	bhi	.L102
	.loc 1 559 0 is_stmt 1
	cmp	r5, #1
	beq	.L111
	.loc 1 563 0
	cmp	r5, #2
	.loc 1 565 0
	movweq	r1, #50503
.LVL112:
	.loc 1 563 0
	bne	.L114
.L104:
	.loc 1 574 0
	cmp	sl, #0
	beq	.L115
	.loc 1 581 0
	movw	r3, #541
	.loc 1 583 0
	mov	r0, #1
	.loc 1 581 0
	movt	r3, 40060
	.loc 1 583 0
	add	r2, sp, #128
	.loc 1 581 0
	str	r3, [r4, #1488]
	.loc 1 583 0
	mov	r3, #128
	bl	bsp_nvm_dcread
.LVL113:
	.loc 1 584 0
	cmp	r0, #0
	bne	.L116
	.loc 1 591 0
	ldr	sl, [sp, #228]
.LVL114:
	.loc 1 592 0
	movw	r3, #9999
	cmp	sl, r3
	bls	.L117
.L107:
	.loc 1 599 0
	add	r4, sp, #60
	add	r1, sp, #160
	add	r3, sp, #24
	ldr	r0, .L121+4
	str	r3, [sp, #0]
	mov	r2, #48
	mov	r3, r4
	bl	wb_aes_decrypt_cbc
.LVL115:
	.loc 1 600 0
	subs	r1, r0, #0
	bne	.L118
	.loc 1 607 0
	ldr	r8, [sp, #24]
.LVL116:
	cmp	r8, #32
	bne	.L119
	.loc 1 615 0
	add	r5, sp, #28
.LVL117:
	str	sl, [sp, #0]
	mov	r0, r6
	mov	r1, r7
	mov	r2, r4
	mov	r3, r5
	bl	PBKDF2.constprop.0
.LVL118:
	.loc 1 616 0
	cmp	r0, #0
	bne	.L120
	.loc 1 624 0
	mov	r0, r5
	add	r1, sp, #128
	mov	r2, r8
	bl	memcmp
.LVL119:
	mov	r6, r0
.LVL120:
.L101:
.LBB87:
	.loc 1 627 0
	mov	r1, #128
	add	r0, sp, r1
	bl	__memzero
.LVL121:
.LBE87:
.LBB88:
	.loc 1 628 0
	mov	r0, r5
	mov	r1, #32
	bl	__memzero
.LVL122:
.LBE88:
.LBB89:
	.loc 1 629 0
	mov	r0, r4
	mov	r1, #32
	bl	__memzero
.LVL123:
.LBE89:
	.loc 1 632 0
	add	r0, sp, #92
	bl	hwlock_get_rtc_time
.LVL124:
	.loc 1 638 0
	ldr	ip, [sp, #108]
	mov	r1, #1
	ldr	r3, [sp, #112]
	add	ip, ip, r1
	str	ip, [sp, #0]
	ldr	ip, [sp, #104]
	add	r3, r3, #1888
	add	r3, r3, #12
	ldr	r0, .L121+8
	ldr	r2, .L121+12
	str	ip, [sp, #4]
	ldr	ip, [sp, #100]
	str	ip, [sp, #8]
	ldr	ip, [sp, #96]
	str	ip, [sp, #12]
	ldr	ip, [sp, #92]
	str	ip, [sp, #16]
	bl	mlog_print
.LVL125:
	.loc 1 640 0
	ldr	r0, .L121+8
	mov	r1, #1
	ldr	r2, .L121+16
	mov	r3, r6
	bl	mlog_print
.LVL126:
	.loc 1 645 0
	mov	r0, r6
	add	sp, sp, #260
	ldmfd	sp!, {r4, r5, r6, r7, r8, sl, pc}
.LVL127:
.L111:
	.loc 1 561 0
	movw	r1, #50502
.LVL128:
	b	.L104
.LVL129:
.L102:
	.loc 1 554 0
	ldr	r0, .L121+20
	.loc 1 555 0
	mvn	r6, #0
.LVL130:
	.loc 1 554 0
	bl	printk
.LVL131:
	add	r4, sp, #60
	add	r5, sp, #28
.LVL132:
	.loc 1 556 0
	b	.L101
.LVL133:
.L113:
	.loc 1 547 0
	ldr	r0, .L121+24
	.loc 1 548 0
	mvn	r6, #0
.LVL134:
	.loc 1 547 0
	bl	printk
.LVL135:
	add	r4, sp, #60
	add	r5, sp, #28
.LVL136:
	.loc 1 549 0
	b	.L101
.LVL137:
.L120:
	.loc 1 618 0
	ldr	r0, .L121+28
	.loc 1 619 0
	mvn	r6, #0
.LVL138:
	.loc 1 618 0
	bl	printk
.LVL139:
	.loc 1 620 0
	b	.L101
.LVL140:
.L119:
	.loc 1 609 0
	ldr	r0, .L121+32
	mov	r1, r8
	bl	printk
.LVL141:
	.loc 1 610 0
	mvn	r6, #0
.LVL142:
	add	r5, sp, #28
.LVL143:
	.loc 1 611 0
	b	.L101
.LVL144:
.L118:
	.loc 1 602 0
	ldr	r0, .L121+36
	.loc 1 603 0
	mvn	r6, #0
.LVL145:
	.loc 1 602 0
	bl	printk
.LVL146:
	add	r5, sp, #28
.LVL147:
	.loc 1 604 0
	b	.L101
.LVL148:
.L117:
	.loc 1 594 0
	ldr	r0, .L121+40
	.loc 1 595 0
	movw	sl, #10000
	.loc 1 594 0
	bl	printk
.LVL149:
	b	.L107
.LVL150:
.L116:
	.loc 1 586 0
	ldr	r0, .L121+44
	.loc 1 587 0
	mvn	r6, #0
.LVL151:
	.loc 1 586 0
	bl	printk
.LVL152:
	add	r4, sp, #60
	add	r5, sp, #28
.LVL153:
	.loc 1 588 0
	b	.L101
.LVL154:
.L115:
	.loc 1 576 0
	ldr	r0, .L121+48
	.loc 1 577 0
	mvn	r6, #0
.LVL155:
	.loc 1 576 0
	bl	printk
.LVL156:
	add	r4, sp, #60
	add	r5, sp, #28
.LVL157:
	.loc 1 578 0
	b	.L101
.LVL158:
.L114:
	.loc 1 569 0
	ldr	r0, .L121+52
	.loc 1 570 0
	mvn	r6, #0
.LVL159:
	.loc 1 569 0
	bl	printk
.LVL160:
	add	r4, sp, #60
	add	r5, sp, #28
.LVL161:
	.loc 1 571 0
	b	.L101
.L122:
	.align	2
.L121:
	.word	g_mem_ctrl
	.word	.LC18
	.word	.LC24
	.word	.LC25
	.word	.LC37
	.word	.LC30
	.word	.LC29
	.word	.LC36
	.word	.LC20
	.word	.LC35
	.word	.LC34
	.word	.LC33
	.word	.LC32
	.word	.LC31
.LFE1989:
	.fnend
	.size	hw_lock_verify_proc, .-hw_lock_verify_proc
	.align	2
	.type	drv_icc_hwlock_verify, %function
drv_icc_hwlock_verify:
	.fnstart
.LFB1991:
	.loc 1 670 0
	@ args = 0, pretend = 0, frame = 48
	@ frame_needed = 0, uses_anonymous_args = 0
.LVL162:
	stmfd	sp!, {r4, r5, r6, lr}
	.save {r4, r5, r6, lr}
.LCFI14:
	.pad #48
	sub	sp, sp, #48
.LCFI15:
	.loc 1 670 0
	mov	r4, r0
	mov	r5, r1
.LBB93:
	.loc 1 678 0
	add	r0, sp, #8
.LVL163:
	mov	r1, #40
.LVL164:
.LBE93:
	.loc 1 670 0
	mov	r6, r2
.LBB94:
	.loc 1 678 0
	bl	__memzero
.LVL165:
.LBE94:
	.loc 1 679 0
	cmp	r4, #24
	bne	.L131
	.loc 1 685 0
	cmp	r5, #40
	bhi	.L132
.L126:
	.loc 1 691 0
	cmp	r6, #0
	beq	.L133
.L127:
	.loc 1 697 0
	add	r1, sp, #8
	mov	r0, #24
	mov	r2, #40
	bl	bsp_icc_read
.LVL166:
	.loc 1 699 0
	cmp	r0, #40
	.loc 1 697 0
	mov	r1, r0
	.loc 1 699 0
	bne	.L134
	.loc 1 705 0
	ldr	r1, [sp, #40]
	add	r0, sp, #8
	ldr	r2, [sp, #44]
	bl	hw_lock_verify_proc
.LVL167:
.LBB95:
.LBB96:
	.loc 1 656 0
	add	r2, sp, #48
	.loc 1 658 0
	mov	r1, #25
	mov	r3, #4
	.loc 1 656 0
	str	r0, [r2, #-44]!
.LVL168:
	.loc 1 658 0
	mov	r0, #1
	bl	bsp_icc_send
.LVL169:
	.loc 1 659 0
	cmp	r0, #4
	.loc 1 665 0
	moveq	r0, #0
.LVL170:
	.loc 1 659 0
	bne	.L135
.L125:
.LVL171:
.LBE96:
.LBE95:
	.loc 1 711 0
	add	sp, sp, #48
	ldmfd	sp!, {r4, r5, r6, pc}
.LVL172:
.L131:
	.loc 1 681 0
	ldr	r0, .L136
	bl	printk
.LVL173:
	.loc 1 682 0
	mvn	r0, #0
.LVL174:
	b	.L125
.LVL175:
.L135:
.LBB98:
.LBB97:
	.loc 1 661 0
	ldr	r0, .L136+4
.LVL176:
	bl	printk
.LVL177:
	.loc 1 662 0
	mvn	r0, #0
.LVL178:
	b	.L125
.LVL179:
.L134:
.LBE97:
.LBE98:
	.loc 1 701 0
	ldr	r0, .L136+8
	mov	r2, #40
	bl	printk
.LVL180:
	.loc 1 702 0
	mvn	r0, #0
.LVL181:
	b	.L125
.LVL182:
.L133:
	.loc 1 694 0
	ldr	r1, .L136+12
	ldr	r0, .L136+16
	bl	printk
.LVL183:
	b	.L127
.L132:
	.loc 1 688 0
	ldr	r1, .L136+12
	ldr	r0, .L136+20
	bl	printk
.LVL184:
	b	.L126
.L137:
	.align	2
.L136:
	.word	.LC38
	.word	.LC42
	.word	.LC41
	.word	.LANCHOR0+32
	.word	.LC40
	.word	.LC39
.LFE1991:
	.fnend
	.size	drv_icc_hwlock_verify, .-drv_icc_hwlock_verify
	.section	.rodata
	.align	2
	.set	.LANCHOR0,. + 0
.LC0:
	.byte	65
	.byte	66
	.byte	68
	.byte	69
	.byte	70
	.byte	71
	.byte	72
	.byte	74
	.byte	76
	.byte	77
	.byte	78
	.byte	81
	.byte	82
	.byte	84
	.byte	89
	.space	1
.LC1:
	.byte	97
	.byte	98
	.byte	100
	.byte	101
	.byte	102
	.byte	103
	.byte	104
	.byte	105
	.byte	106
	.byte	109
	.byte	110
	.byte	113
	.byte	114
	.byte	116
	.byte	121
	.space	1
	.type	__func__.31511, %object
	.size	__func__.31511, 22
__func__.31511:
	.ascii	"drv_icc_hwlock_verify\000"
	.section	.initcall6.init,"aw",%progbits
	.align	2
	.type	__initcall_drv_verify_simlock_acore_init6, %object
	.size	__initcall_drv_verify_simlock_acore_init6, 4
__initcall_drv_verify_simlock_acore_init6:
	.word	drv_verify_simlock_acore_init
	.section	.rodata.str1.4,"aMS",%progbits,1
	.align	2
.LC2:
	.ascii	"\0013[HWLOCK] drv verify simlock acore init fail:%d"
	.ascii	"\012\000"
	.space	2
.LC3:
	.ascii	"\0016[HWLOCK] drv verify simlock init ok!\015\012\000"
	.space	3
.LC4:
	.ascii	"\0013[HWLOCK] key or plaintext or output is null er"
	.ascii	"r!\015\012\000"
	.space	3
.LC5:
	.ascii	"hmac(sha256)\000"
	.space	3
.LC6:
	.ascii	"\0013[HWLOCK] alloc ahash failed: err %ld\000"
	.space	1
.LC7:
	.ascii	"\0013[HWLOCK] ahash setkey failed: err %d\000"
	.space	1
.LC8:
	.ascii	"\0013[HWLOCK] pointer is NOT correct!\015\012\000"
	.space	3
.LC9:
	.ascii	"\0013[HWLOCK] pwd_len NOT correct!\015\012\000"
	.space	2
.LC10:
	.ascii	"\0013[HWLOCK] iterate_cnt NOT correct!\015\012\000"
	.space	2
.LC11:
	.ascii	"\0013[HWLOCK] ret is %d!\015\012\000"
.LC12:
	.ascii	"\0013[HWLOCK] set hwlock lock_para is err!\015\012\000"
	.space	2
.LC13:
	.ascii	"\0013[HWLOCK] set hwlock para len err!\015\012\000"
	.space	2
.LC14:
	.ascii	"\0013[HWLOCK] drv check hwlock_string para err!\015"
	.ascii	"\012\000"
	.space	1
.LC15:
	.ascii	"\0013[HWLOCK] set hwlock HW_LOCK_OEM_TYPE err!\015\012"
	.ascii	"\000"
	.space	2
.LC16:
	.ascii	"\0013[HWLOCK]  random in random_buf is invalid!\015"
	.ascii	"\012\000"
	.space	1
.LC17:
	.ascii	"\0013[HWLOCK] set hwlock get times random error\015"
	.ascii	"\012\000"
	.space	1
.LC18:
	.ascii	"E678442CE1B2915C\000"
	.space	3
.LC19:
	.ascii	"\0013[HWLOCK] aes encrypt result = %d err!\015\012\000"
	.space	2
.LC20:
	.ascii	"\0013[HWLOCK] aes encrypt return len = %d err!\015\012"
	.ascii	"\000"
	.space	2
.LC21:
	.ascii	"\0013[HWLOCK] set hwlock algorithm  process error,r"
	.ascii	"esult = %d!\015\012\000"
	.space	2
.LC22:
	.ascii	"\0013[HWLOCK] set hwlock smem flag malloc fail!\012"
	.ascii	"\000"
	.space	2
.LC23:
	.ascii	"\0013[HWLOCK] set hwlock:ERROR:write OEMLOCK nv Fai"
	.ascii	"l,result = %d!\015\012\000"
	.space	3
.LC24:
	.ascii	"SIMLOCK\000"
.LC25:
	.ascii	"UTC time :%d-%d-%d %d:%d:%d \000"
	.space	3
.LC26:
	.ascii	"release set hwlock ret is %d.\015\012\000"
.LC27:
	.ascii	"\0016[HWLOCK]drv check hwlock string CHAR IS INVALI"
	.ascii	"D!\015\012\000"
	.space	3
.LC28:
	.ascii	"\0013[HWLOCK] set hwlock str check invalid!\015\012"
	.ascii	"\000"
	.space	1
.LC29:
	.ascii	"\0013[HWLOCK] verify hwlock para err!\015\012\000"
	.space	3
.LC30:
	.ascii	"\0013[HWLOCK] verify hwlock para len err!\015\012\000"
	.space	3
.LC31:
	.ascii	"\0013[HWLOCK] verify hwlock type err!\015\012\000"
	.space	3
.LC32:
	.ascii	"\0013[HWLOCK] verify hwlock smem nv malloc fail!\012"
	.ascii	"\000"
	.space	1
.LC33:
	.ascii	"\0013[HWLOCK] verify hwlock :ERROR:read nv hw_lock "
	.ascii	"Fail.r\012\000"
.LC34:
	.ascii	"\0013[HWLOCK] verify hwlock get times random invali"
	.ascii	"d\015\012\000"
.LC35:
	.ascii	"\0013[HWLOCK] aes decrypt result = %derr!\015\012\000"
	.space	3
.LC36:
	.ascii	"\0013[HWLOCK] verify hwlock algorithm process error"
	.ascii	"!\015\012\000"
.LC37:
	.ascii	"release verify hwlock ret is %d.\015\012\000"
	.space	1
.LC38:
	.ascii	"\0013[HWLOCK] simlock: channel_id doesn't match\012"
	.ascii	"\000"
	.space	2
.LC39:
	.ascii	"\0016[HWLOCK] %s :  len is longer than hwlock_msg l"
	.ascii	"en\015\012\000"
	.space	3
.LC40:
	.ascii	"\0016[HWLOCK]%s :  pdata is null!\015\012\000"
	.space	3
.LC41:
	.ascii	"\0013[HWLOCK]read len(%d) != expected len(%d) !\012"
	.ascii	"\000"
	.space	2
.LC42:
	.ascii	"\0013[HWLOCK] simlock : send verify ack fail !!!\012"
	.ascii	"\000"
	.section	.debug_frame,"",%progbits
.Lframe0:
	.4byte	.LECIE0-.LSCIE0
.LSCIE0:
	.4byte	0xffffffff
	.byte	0x1
	.ascii	"\000"
	.uleb128 0x1
	.sleb128 -4
	.byte	0xe
	.byte	0xc
	.uleb128 0xd
	.uleb128 0
	.align	2
.LECIE0:
.LSFDE0:
	.4byte	.LEFDE0-.LASFDE0
.LASFDE0:
	.4byte	.Lframe0
	.4byte	.LFB1992
	.4byte	.LFE1992-.LFB1992
	.byte	0x4
	.4byte	.LCFI0-.LFB1992
	.byte	0xe
	.uleb128 0x8
	.byte	0x84
	.uleb128 0x2
	.byte	0x8e
	.uleb128 0x1
	.byte	0x4
	.4byte	.LCFI1-.LCFI0
	.byte	0xe
	.uleb128 0x10
	.align	2
.LEFDE0:
.LSFDE2:
	.4byte	.LEFDE2-.LASFDE2
.LASFDE2:
	.4byte	.Lframe0
	.4byte	.LFB1979
	.4byte	.LFE1979-.LFB1979
	.byte	0x4
	.4byte	.LCFI2-.LFB1979
	.byte	0xe
	.uleb128 0x20
	.byte	0x84
	.uleb128 0x8
	.byte	0x85
	.uleb128 0x7
	.byte	0x86
	.uleb128 0x6
	.byte	0x87
	.uleb128 0x5
	.byte	0x88
	.uleb128 0x4
	.byte	0x8a
	.uleb128 0x3
	.byte	0x8b
	.uleb128 0x2
	.byte	0x8e
	.uleb128 0x1
	.byte	0x4
	.4byte	.LCFI3-.LCFI2
	.byte	0xc
	.uleb128 0xb
	.uleb128 0x4
	.align	2
.LEFDE2:
.LSFDE4:
	.4byte	.LEFDE4-.LASFDE4
.LASFDE4:
	.4byte	.Lframe0
	.4byte	.LFB1993
	.4byte	.LFE1993-.LFB1993
	.byte	0x4
	.4byte	.LCFI4-.LFB1993
	.byte	0xe
	.uleb128 0x20
	.byte	0x84
	.uleb128 0x8
	.byte	0x85
	.uleb128 0x7
	.byte	0x86
	.uleb128 0x6
	.byte	0x87
	.uleb128 0x5
	.byte	0x88
	.uleb128 0x4
	.byte	0x89
	.uleb128 0x3
	.byte	0x8a
	.uleb128 0x2
	.byte	0x8e
	.uleb128 0x1
	.byte	0x4
	.4byte	.LCFI5-.LCFI4
	.byte	0xe
	.uleb128 0x90
	.align	2
.LEFDE4:
.LSFDE6:
	.4byte	.LEFDE6-.LASFDE6
.LASFDE6:
	.4byte	.Lframe0
	.4byte	.LFB1978
	.4byte	.LFE1978-.LFB1978
	.byte	0x4
	.4byte	.LCFI6-.LFB1978
	.byte	0xe
	.uleb128 0x8
	.byte	0x84
	.uleb128 0x2
	.byte	0x8e
	.uleb128 0x1
	.byte	0x4
	.4byte	.LCFI7-.LCFI6
	.byte	0xe
	.uleb128 0x88
	.align	2
.LEFDE6:
.LSFDE8:
	.4byte	.LEFDE8-.LASFDE8
.LASFDE8:
	.4byte	.Lframe0
	.4byte	.LFB1983
	.4byte	.LFE1983-.LFB1983
	.byte	0x4
	.4byte	.LCFI8-.LFB1983
	.byte	0xe
	.uleb128 0x4
	.byte	0x8e
	.uleb128 0x1
	.byte	0x4
	.4byte	.LCFI9-.LCFI8
	.byte	0xe
	.uleb128 0x10
	.align	2
.LEFDE8:
.LSFDE10:
	.4byte	.LEFDE10-.LASFDE10
.LASFDE10:
	.4byte	.Lframe0
	.4byte	.LFB1988
	.4byte	.LFE1988-.LFB1988
	.byte	0x4
	.4byte	.LCFI10-.LFB1988
	.byte	0xe
	.uleb128 0x24
	.byte	0x84
	.uleb128 0x9
	.byte	0x85
	.uleb128 0x8
	.byte	0x86
	.uleb128 0x7
	.byte	0x87
	.uleb128 0x6
	.byte	0x88
	.uleb128 0x5
	.byte	0x89
	.uleb128 0x4
	.byte	0x8a
	.uleb128 0x3
	.byte	0x8b
	.uleb128 0x2
	.byte	0x8e
	.uleb128 0x1
	.byte	0x4
	.4byte	.LCFI11-.LCFI10
	.byte	0xe
	.uleb128 0x148
	.align	2
.LEFDE10:
.LSFDE12:
	.4byte	.LEFDE12-.LASFDE12
.LASFDE12:
	.4byte	.Lframe0
	.4byte	.LFB1989
	.4byte	.LFE1989-.LFB1989
	.byte	0x4
	.4byte	.LCFI12-.LFB1989
	.byte	0xe
	.uleb128 0x1c
	.byte	0x84
	.uleb128 0x7
	.byte	0x85
	.uleb128 0x6
	.byte	0x86
	.uleb128 0x5
	.byte	0x87
	.uleb128 0x4
	.byte	0x88
	.uleb128 0x3
	.byte	0x8a
	.uleb128 0x2
	.byte	0x8e
	.uleb128 0x1
	.byte	0x4
	.4byte	.LCFI13-.LCFI12
	.byte	0xe
	.uleb128 0x120
	.align	2
.LEFDE12:
.LSFDE14:
	.4byte	.LEFDE14-.LASFDE14
.LASFDE14:
	.4byte	.Lframe0
	.4byte	.LFB1991
	.4byte	.LFE1991-.LFB1991
	.byte	0x4
	.4byte	.LCFI14-.LFB1991
	.byte	0xe
	.uleb128 0x10
	.byte	0x84
	.uleb128 0x4
	.byte	0x85
	.uleb128 0x3
	.byte	0x86
	.uleb128 0x2
	.byte	0x8e
	.uleb128 0x1
	.byte	0x4
	.4byte	.LCFI15-.LCFI14
	.byte	0xe
	.uleb128 0x40
	.align	2
.LEFDE14:
	.text
.Letext0:
	.file 4 "/usr1/ywx374880/B618_Master/vendor/hisi/build/release_kernel/kernel/drivers/hisi/modem/include/drv/common/mdrv_ipc_enum.h"
	.file 5 "/usr1/ywx374880/B618_Master/vendor/hisi/build/release_kernel/kernel/drivers/hisi/modem/include/drv/acore/mdrv_icc.h"
	.file 6 "/usr1/ywx374880/B618_Master/vendor/hisi/build/release_kernel/kernel/drivers/hisi/modem/include/drv/common/mdrv_om_common.h"
	.file 7 "/usr1/ywx374880/B618_Master/vendor/hisi/build/release_kernel/kernel/include/uapi/asm-generic/int-ll64.h"
	.file 8 "/usr1/ywx374880/B618_Master/vendor/hisi/build/release_kernel/kernel/include/asm-generic/int-ll64.h"
	.file 9 "/usr1/ywx374880/B618_Master/vendor/hisi/build/release_kernel/kernel/include/uapi/asm-generic/posix_types.h"
	.file 10 "/usr1/ywx374880/B618_Master/vendor/hisi/build/release_kernel/kernel/include/linux/types.h"
	.file 11 "/usr1/ywx374880/B618_Master/vendor/hisi/build/release_kernel/kernel/include/linux/spinlock_types_up.h"
	.file 12 "/usr1/ywx374880/B618_Master/vendor/hisi/build/release_kernel/kernel/include/linux/spinlock_types.h"
	.file 13 "/usr1/ywx374880/B618_Master/vendor/hisi/build/release_kernel/kernel/include/linux/rwlock_types.h"
	.file 14 "/usr1/ywx374880/B618_Master/vendor/hisi/build/release_kernel/kernel/arch/arm/include/asm/outercache.h"
	.file 15 "/usr1/ywx374880/B618_Master/vendor/hisi/build/release_kernel/kernel/arch/arm/include/asm/atomic.h"
	.file 16 "/usr1/ywx374880/B618_Master/vendor/hisi/build/release_kernel/kernel/include/asm-generic/atomic-long.h"
	.file 17 "/usr1/ywx374880/B618_Master/vendor/hisi/build/release_kernel/kernel/include/linux/mutex.h"
	.file 18 "/usr1/ywx374880/B618_Master/vendor/hisi/build/release_kernel/kernel/include/linux/sched.h"
	.file 19 "/usr1/ywx374880/B618_Master/vendor/hisi/build/release_kernel/kernel/include/linux/init.h"
	.file 20 "/usr1/ywx374880/B618_Master/vendor/hisi/build/release_kernel/kernel/include/uapi/linux/time.h"
	.file 21 "/usr1/ywx374880/B618_Master/vendor/hisi/build/release_kernel/kernel/arch/arm/include/asm/processor.h"
	.file 22 "/usr1/ywx374880/B618_Master/vendor/hisi/build/release_kernel/kernel/include/linux/rwsem-spinlock.h"
	.file 23 "/usr1/ywx374880/B618_Master/vendor/hisi/build/release_kernel/kernel/include/linux/cpumask.h"
	.file 24 "/usr1/ywx374880/B618_Master/vendor/hisi/build/release_kernel/kernel/include/linux/seqlock.h"
	.file 25 "/usr1/ywx374880/B618_Master/vendor/hisi/build/release_kernel/kernel/include/linux/wait.h"
	.file 26 "/usr1/ywx374880/B618_Master/vendor/hisi/build/release_kernel/kernel/include/linux/completion.h"
	.file 27 "/usr1/ywx374880/B618_Master/vendor/hisi/build/release_kernel/kernel/include/uapi/linux/timex.h"
	.file 28 "/usr1/ywx374880/B618_Master/vendor/hisi/build/release_kernel/kernel/include/linux/ktime.h"
	.file 29 "/usr1/ywx374880/B618_Master/vendor/hisi/build/release_kernel/kernel/include/linux/timer.h"
	.file 30 "/usr1/ywx374880/B618_Master/vendor/hisi/build/release_kernel/kernel/include/linux/workqueue.h"
	.file 31 "/usr1/ywx374880/B618_Master/vendor/hisi/build/release_kernel/kernel/drivers/hisi/modem/include/drv/acore/mdrv_udi.h"
	.file 32 "/usr1/ywx374880/B618_Master/vendor/hisi/build/release_kernel/kernel/include/linux/rbtree.h"
	.file 33 "/usr1/ywx374880/B618_Master/vendor/hisi/build/release_kernel/kernel/include/linux/mm_types.h"
	.file 34 "/usr1/ywx374880/B618_Master/vendor/hisi/build/release_kernel/kernel/include/linux/lockdep.h"
	.file 35 "/usr1/ywx374880/B618_Master/vendor/hisi/build/release_kernel/kernel/include/linux/uprobes.h"
	.file 36 "/usr1/ywx374880/B618_Master/vendor/hisi/build/release_kernel/kernel/arch/arm/include/asm/pgtable-2level-types.h"
	.file 37 "/usr1/ywx374880/B618_Master/vendor/hisi/build/release_kernel/kernel/arch/arm/include/asm/mmu.h"
	.file 38 "/usr1/ywx374880/B618_Master/vendor/hisi/build/release_kernel/kernel/include/linux/slub_def.h"
	.file 39 "/usr1/ywx374880/B618_Master/vendor/hisi/build/release_kernel/kernel/include/linux/fs.h"
	.file 40 "/usr1/ywx374880/B618_Master/vendor/hisi/build/release_kernel/kernel/include/linux/mm.h"
	.file 41 "/usr1/ywx374880/B618_Master/vendor/hisi/build/release_kernel/kernel/include/uapi/linux/uio.h"
	.file 42 "/usr1/ywx374880/B618_Master/vendor/hisi/build/release_kernel/kernel/include/linux/poll.h"
	.file 43 "/usr1/ywx374880/B618_Master/vendor/hisi/build/release_kernel/kernel/include/linux/nodemask.h"
	.file 44 "/usr1/ywx374880/B618_Master/vendor/hisi/build/release_kernel/kernel/include/linux/mmzone.h"
	.file 45 "/usr1/ywx374880/B618_Master/vendor/hisi/build/release_kernel/kernel/include/linux/percpu.h"
	.file 46 "/usr1/ywx374880/B618_Master/vendor/hisi/build/release_kernel/kernel/include/linux/kobject_ns.h"
	.file 47 "/usr1/ywx374880/B618_Master/vendor/hisi/build/release_kernel/kernel/include/linux/sysfs.h"
	.file 48 "/usr1/ywx374880/B618_Master/vendor/hisi/build/release_kernel/kernel/include/linux/kobject.h"
	.file 49 "/usr1/ywx374880/B618_Master/vendor/hisi/build/release_kernel/kernel/include/linux/kref.h"
	.file 50 "/usr1/ywx374880/B618_Master/vendor/hisi/build/release_kernel/kernel/include/linux/ioport.h"
	.file 51 "/usr1/ywx374880/B618_Master/vendor/hisi/build/release_kernel/kernel/include/linux/klist.h"
	.file 52 "/usr1/ywx374880/B618_Master/vendor/hisi/build/release_kernel/kernel/include/linux/pm.h"
	.file 53 "/usr1/ywx374880/B618_Master/vendor/hisi/build/release_kernel/kernel/include/linux/device.h"
	.file 54 "/usr1/ywx374880/B618_Master/vendor/hisi/build/release_kernel/kernel/include/linux/pm_wakeup.h"
	.file 55 "/usr1/ywx374880/B618_Master/vendor/hisi/build/release_kernel/kernel/include/linux/uidgid.h"
	.file 56 "/usr1/ywx374880/B618_Master/vendor/hisi/build/release_kernel/kernel/arch/arm/include/asm/device.h"
	.file 57 "/usr1/ywx374880/B618_Master/vendor/hisi/build/release_kernel/kernel/include/linux/dma-mapping.h"
	.file 58 "/usr1/ywx374880/B618_Master/vendor/hisi/build/release_kernel/kernel/include/linux/shrinker.h"
	.file 59 "/usr1/ywx374880/B618_Master/vendor/hisi/build/release_kernel/kernel/include/linux/capability.h"
	.file 60 "/usr1/ywx374880/B618_Master/vendor/hisi/build/release_kernel/kernel/include/asm-generic/cputime_jiffies.h"
	.file 61 "/usr1/ywx374880/B618_Master/vendor/hisi/build/release_kernel/kernel/include/linux/sem.h"
	.file 62 "/usr1/ywx374880/B618_Master/vendor/hisi/build/release_kernel/kernel/include/uapi/asm-generic/signal-defs.h"
	.file 63 "/usr1/ywx374880/B618_Master/vendor/hisi/build/release_kernel/kernel/arch/arm/include/asm/signal.h"
	.file 64 "/usr1/ywx374880/B618_Master/vendor/hisi/build/release_kernel/kernel/include/uapi/asm-generic/siginfo.h"
	.file 65 "/usr1/ywx374880/B618_Master/vendor/hisi/build/release_kernel/kernel/include/linux/signal.h"
	.file 66 "/usr1/ywx374880/B618_Master/vendor/hisi/build/release_kernel/kernel/include/linux/pid.h"
	.file 67 "/usr1/ywx374880/B618_Master/vendor/hisi/build/release_kernel/kernel/include/linux/percpu_counter.h"
	.file 68 "/usr1/ywx374880/B618_Master/vendor/hisi/build/release_kernel/kernel/include/linux/seccomp.h"
	.file 69 "/usr1/ywx374880/B618_Master/vendor/hisi/build/release_kernel/kernel/include/linux/plist.h"
	.file 70 "/usr1/ywx374880/B618_Master/vendor/hisi/build/release_kernel/kernel/include/uapi/linux/resource.h"
	.file 71 "/usr1/ywx374880/B618_Master/vendor/hisi/build/release_kernel/kernel/include/linux/timerqueue.h"
	.file 72 "/usr1/ywx374880/B618_Master/vendor/hisi/build/release_kernel/kernel/include/linux/hrtimer.h"
	.file 73 "/usr1/ywx374880/B618_Master/vendor/hisi/build/release_kernel/kernel/include/linux/task_io_accounting.h"
	.file 74 "/usr1/ywx374880/B618_Master/vendor/hisi/build/release_kernel/kernel/include/linux/key.h"
	.file 75 "/usr1/ywx374880/B618_Master/vendor/hisi/build/release_kernel/kernel/include/linux/cred.h"
	.file 76 "/usr1/ywx374880/B618_Master/vendor/hisi/build/release_kernel/kernel/arch/arm/include/asm/tlbflush.h"
	.file 77 "/usr1/ywx374880/B618_Master/vendor/hisi/build/release_kernel/kernel/include/linux/vm_event_item.h"
	.file 78 "/usr1/ywx374880/B618_Master/vendor/hisi/build/release_kernel/kernel/include/linux/vmstat.h"
	.file 79 "/usr1/ywx374880/B618_Master/vendor/hisi/build/release_kernel/kernel/include/asm-generic/scatterlist.h"
	.file 80 "/usr1/ywx374880/B618_Master/vendor/hisi/build/release_kernel/kernel/include/linux/scatterlist.h"
	.file 81 "/usr1/ywx374880/B618_Master/vendor/hisi/build/release_kernel/kernel/include/linux/dmaengine.h"
	.file 82 "/usr1/ywx374880/B618_Master/vendor/hisi/build/release_kernel/kernel/include/linux/dma-attrs.h"
	.file 83 "/usr1/ywx374880/B618_Master/vendor/hisi/build/release_kernel/kernel/include/linux/dma-direction.h"
	.file 84 "/usr1/ywx374880/B618_Master/vendor/hisi/build/release_kernel/kernel/drivers/hisi/modem/include/drv/common/drv_mailbox_cfg.h"
	.file 85 "/usr1/ywx374880/B618_Master/vendor/hisi/build/release_kernel/kernel/include/linux/crypto.h"
	.file 86 "/usr1/ywx374880/B618_Master/vendor/hisi/build/release_kernel/kernel/drivers/hisi/modem/include/nv/product/product_nv_id.h"
	.file 87 "/usr1/ywx374880/B618_Master/vendor/hisi/build/release_kernel/kernel/drivers/hisi/modem/include/nv/product/product_nv_def.h"
	.file 88 "/usr1/ywx374880/B618_Master/vendor/hisi/build/release_kernel/kernel/drivers/hisi/modem/drv/common/include/bsp_s_memory.h"
	.file 89 "/usr1/ywx374880/B618_Master/vendor/hisi/build/release_kernel/kernel/drivers/hisi/modem/platform/hi6950/common/soc/soc_onchiprom.h"
	.file 90 "/usr1/ywx374880/B618_Master/vendor/hisi/build/release_kernel/kernel/drivers/hisi/modem/drv/common/include/bsp_sram.h"
	.file 91 "/usr1/ywx374880/B618_Master/vendor/hisi/build/release_kernel/kernel/include/linux/interrupt.h"
	.file 92 "/usr1/ywx374880/B618_Master/vendor/hisi/build/release_kernel/kernel/drivers/hisi/modem/drv/common/include/bsp_nvim.h"
	.file 93 "/usr1/ywx374880/B618_Master/vendor/hisi/build/release_kernel/kernel/drivers/hisi/modem/drv/common/include/bsp_icc.h"
	.file 94 "/usr1/ywx374880/B618_Master/vendor/hisi/build/release_kernel/kernel/include/linux/mlog_lib.h"
	.file 95 "/usr1/ywx374880/B618_Master/vendor/hisi/build/release_kernel/kernel/include/uapi/linux/rtc.h"
	.file 96 "/usr1/ywx374880/B618_Master/vendor/hisi/build/release_kernel/kernel/include/linux/seq_file.h"
	.file 97 "/usr1/ywx374880/B618_Master/vendor/hisi/build/release_kernel/kernel/include/linux/cdev.h"
	.file 98 "/usr1/ywx374880/B618_Master/vendor/hisi/build/release_kernel/kernel/include/linux/list_bl.h"
	.file 99 "/usr1/ywx374880/B618_Master/vendor/hisi/build/release_kernel/kernel/include/linux/dcache.h"
	.file 100 "/usr1/ywx374880/B618_Master/vendor/hisi/build/release_kernel/kernel/include/linux/path.h"
	.file 101 "/usr1/ywx374880/B618_Master/vendor/hisi/build/release_kernel/kernel/include/linux/stat.h"
	.file 102 "/usr1/ywx374880/B618_Master/vendor/hisi/build/release_kernel/kernel/include/linux/radix-tree.h"
	.file 103 "/usr1/ywx374880/B618_Master/vendor/hisi/build/release_kernel/kernel/include/uapi/linux/fiemap.h"
	.file 104 "/usr1/ywx374880/B618_Master/vendor/hisi/build/release_kernel/kernel/include/linux/migrate_mode.h"
	.file 105 "/usr1/ywx374880/B618_Master/vendor/hisi/build/release_kernel/kernel/include/uapi/linux/dqblk_xfs.h"
	.file 106 "/usr1/ywx374880/B618_Master/vendor/hisi/build/release_kernel/kernel/include/linux/quota.h"
	.file 107 "/usr1/ywx374880/B618_Master/vendor/hisi/build/release_kernel/kernel/include/linux/projid.h"
	.file 108 "/usr1/ywx374880/B618_Master/vendor/hisi/build/release_kernel/kernel/include/uapi/linux/quota.h"
	.file 109 "/usr1/ywx374880/B618_Master/vendor/hisi/build/release_kernel/kernel/include/linux/nfs_fs_i.h"
	.file 110 "/usr1/ywx374880/B618_Master/vendor/hisi/build/release_kernel/kernel/arch/arm/include/asm/hwcap.h"
	.file 111 "/usr1/ywx374880/B618_Master/vendor/hisi/build/release_kernel/kernel/include/linux/printk.h"
	.file 112 "/usr1/ywx374880/B618_Master/vendor/hisi/build/release_kernel/kernel/include/linux/kernel.h"
	.file 113 "/usr1/ywx374880/B618_Master/vendor/hisi/build/release_kernel/kernel/include/linux/time.h"
	.file 114 "/usr1/ywx374880/B618_Master/vendor/hisi/build/release_kernel/kernel/arch/arm/include/asm/memory.h"
	.file 115 "/usr1/ywx374880/B618_Master/vendor/hisi/build/release_kernel/kernel/include/linux/slab.h"
	.file 116 "/usr1/ywx374880/B618_Master/vendor/hisi/build/release_kernel/kernel/include/linux/highuid.h"
	.file 117 "/usr1/ywx374880/B618_Master/vendor/hisi/build/release_kernel/kernel/include/linux/debug_locks.h"
	.file 118 "/usr1/ywx374880/B618_Master/vendor/hisi/build/release_kernel/kernel/include/asm-generic/pgtable.h"
	.file 119 "/usr1/ywx374880/B618_Master/vendor/hisi/build/release_kernel/kernel/arch/arm/include/asm/dma-mapping.h"
	.file 120 "/usr1/ywx374880/B618_Master/vendor/hisi/build/release_kernel/kernel/drivers/hisi/modem/drv/common/include/bsp_cpufreq.h"
	.file 121 "/usr1/ywx374880/B618_Master/vendor/hisi/build/release_kernel/kernel/arch/arm/include/asm/string.h"
	.file 122 "/usr1/ywx374880/B618_Master/vendor/hisi/build/release_kernel/kernel/include/linux/string.h"
	.file 123 "/usr1/ywx374880/B618_Master/vendor/hisi/build/release_kernel/kernel/drivers/hisi/modem/include/drv/acore/mdrv_simlock.h"
	.file 124 "/usr1/ywx374880/B618_Master/vendor/hisi/build/release_kernel/kernel/include/linux/rtc.h"
	.file 125 "/usr1/ywx374880/B618_Master/vendor/hisi/build/release_kernel/kernel/include/linux/random.h"
	.file 126 "/usr1/ywx374880/B618_Master/vendor/hisi/build/release_kernel/kernel/drivers/simlock/huawei_aes/wb_aes_encrypt.h"
	.file 127 "/usr1/ywx374880/B618_Master/vendor/hisi/build/release_kernel/kernel/drivers/simlock/huawei_aes/wb_aes_decrypt.h"